target datalayout = "e-m:e-p270:32:32-p271:32:32-p272:64:64-i64:64-i128:128-f80:128-n8:16:32:64-S128"
target triple = "x86_64-pc-linux-gnu"

; Function Attrs: nounwind uwtable
define void @Kit_PlaComplement(ptr noundef %0) #0 {
  %2 = alloca ptr, align 8
  %3 = alloca ptr, align 8
  store ptr %0, ptr %2, align 8, !tbaa !3
  call void @llvm.lifetime.start.p0(i64 8, ptr %3) #9
  %4 = load ptr, ptr %2, align 8, !tbaa !3
  store ptr %4, ptr %3, align 8, !tbaa !3
  br label %5

5:                                                ; preds = %56, %1
  %6 = load ptr, ptr %3, align 8, !tbaa !3
  %7 = load i8, ptr %6, align 1, !tbaa !8
  %8 = icmp ne i8 %7, 0
  br i1 %8, label %9, label %59

9:                                                ; preds = %5
  %10 = load ptr, ptr %3, align 8, !tbaa !3
  %11 = load i8, ptr %10, align 1, !tbaa !8
  %12 = sext i8 %11 to i32
  %13 = icmp eq i32 %12, 10
  br i1 %13, label %14, label %55

14:                                               ; preds = %9
  %15 = load ptr, ptr %3, align 8, !tbaa !3
  %16 = getelementptr inbounds i8, ptr %15, i64 -1
  %17 = load i8, ptr %16, align 1, !tbaa !8
  %18 = sext i8 %17 to i32
  %19 = icmp eq i32 %18, 48
  br i1 %19, label %20, label %23

20:                                               ; preds = %14
  %21 = load ptr, ptr %3, align 8, !tbaa !3
  %22 = getelementptr inbounds i8, ptr %21, i64 -1
  store i8 49, ptr %22, align 1, !tbaa !8
  br label %54

23:                                               ; preds = %14
  %24 = load ptr, ptr %3, align 8, !tbaa !3
  %25 = getelementptr inbounds i8, ptr %24, i64 -1
  %26 = load i8, ptr %25, align 1, !tbaa !8
  %27 = sext i8 %26 to i32
  %28 = icmp eq i32 %27, 49
  br i1 %28, label %29, label %32

29:                                               ; preds = %23
  %30 = load ptr, ptr %3, align 8, !tbaa !3
  %31 = getelementptr inbounds i8, ptr %30, i64 -1
  store i8 48, ptr %31, align 1, !tbaa !8
  br label %53

32:                                               ; preds = %23
  %33 = load ptr, ptr %3, align 8, !tbaa !3
  %34 = getelementptr inbounds i8, ptr %33, i64 -1
  %35 = load i8, ptr %34, align 1, !tbaa !8
  %36 = sext i8 %35 to i32
  %37 = icmp eq i32 %36, 120
  br i1 %37, label %38, label %41

38:                                               ; preds = %32
  %39 = load ptr, ptr %3, align 8, !tbaa !3
  %40 = getelementptr inbounds i8, ptr %39, i64 -1
  store i8 110, ptr %40, align 1, !tbaa !8
  br label %52

41:                                               ; preds = %32
  %42 = load ptr, ptr %3, align 8, !tbaa !3
  %43 = getelementptr inbounds i8, ptr %42, i64 -1
  %44 = load i8, ptr %43, align 1, !tbaa !8
  %45 = sext i8 %44 to i32
  %46 = icmp eq i32 %45, 110
  br i1 %46, label %47, label %50

47:                                               ; preds = %41
  %48 = load ptr, ptr %3, align 8, !tbaa !3
  %49 = getelementptr inbounds i8, ptr %48, i64 -1
  store i8 120, ptr %49, align 1, !tbaa !8
  br label %51

50:                                               ; preds = %41
  br label %51

51:                                               ; preds = %50, %47
  br label %52

52:                                               ; preds = %51, %38
  br label %53

53:                                               ; preds = %52, %29
  br label %54

54:                                               ; preds = %53, %20
  br label %55

55:                                               ; preds = %54, %9
  br label %56

56:                                               ; preds = %55
  %57 = load ptr, ptr %3, align 8, !tbaa !3
  %58 = getelementptr inbounds nuw i8, ptr %57, i32 1
  store ptr %58, ptr %3, align 8, !tbaa !3
  br label %5, !llvm.loop !15

59:                                               ; preds = %5
  call void @llvm.lifetime.end.p0(i64 8, ptr %3) #9
  ret void
}