; Function Attrs: nofree norecurse nosync nounwind memory(argmem: readwrite) uwtable
define void @Kit_PlaComplement(ptr noundef captures(none) %0) local_unnamed_addr #2 {
  br label %2

2:                                                ; preds = %10, %1
  %.0 = phi ptr [ %0, %1 ], [ %11, %10 ]
  %3 = load i8, ptr %.0, align 1, !tbaa !3
  switch i8 %3, label %10 [
    i8 0, label %12
    i8 10, label %4
  ]

4:                                                ; preds = %2
  %5 = getelementptr inbounds i8, ptr %.0, i64 -1
  %6 = load i8, ptr %5, align 1, !tbaa !3
  switch i8 %6, label %10 [
    i8 48, label %.sink.split
    i8 49, label %7
    i8 120, label %8
    i8 110, label %9
  ]

7:                                                ; preds = %4
  br label %.sink.split

8:                                                ; preds = %4
  br label %.sink.split

9:                                                ; preds = %4
  br label %.sink.split

.sink.split:                                      ; preds = %4, %8, %9, %7
  %.sink = phi i8 [ 48, %7 ], [ 120, %9 ], [ 110, %8 ], [ 49, %4 ]
  store i8 %.sink, ptr %5, align 1, !tbaa !3
  br label %10

10:                                               ; preds = %.sink.split, %4, %2
  %11 = getelementptr inbounds nuw i8, ptr %.0, i64 1
  br label %2, !llvm.loop !10

12:                                               ; preds = %2
  ret void
}